target datalayout = "e-m:e-p270:32:32-p271:32:32-p272:64:64-i64:64-i128:128-f80:128-n8:16:32:64-S128"
target triple = "x86_64-pc-linux-gnu"

%struct.AVChannelLayout = type { i32, i32, %union.anon.0, ptr }
%union.anon.0 = type { i64 }
%struct.AVCodecContext = type { ptr, i32, i32, ptr, i32, i32, ptr, ptr, ptr, i64, i32, i32, ptr, i32, %struct.AVRational, %struct.AVRational, %struct.AVRational, i32, i32, i32, i32, i32, %struct.AVRational, i32, i32, i32, i32, i32, i32, i32, i32, i32, i32, i32, ptr, ptr, i32, float, float, float, float, float, float, float, float, float, i32, i32, i32, i32, i32, i32, i32, i32, i32, i32, i32, i32, ptr, ptr, ptr, i32, i32, i32, i32, i32, i32, i32, i32, i32, i32, %struct.AVChannelLayout, i32, i32, i32, i32, i32, i32, i32, i32, ptr, i32, i32, i32, float, float, i32, i32, i32, i32, i32, ptr, i64, i64, float, float, i32, i32, ptr, ptr, i32, i32, i32, i32, i32, ptr, ptr, ptr, ptr, i32, i32, [8 x i64], i32, i32, i32, i32, i32, i32, i32, ptr, ptr, i32, i32, i32, i32, i32, i32, i32, i32, i32, i32, ptr, ptr, i32, i32, ptr, ptr, ptr, ptr, i32, i32, i64, i32, i32, i64, ptr, i64, ptr, i32, ptr, i32 }
%struct.AVRational = type { i32, i32 }
%struct.SirenContext = type { %struct.GetBitContext, i32, i32, i32, i32, i32, i32, i32, i32, i32, i32, i32, [32 x i32], [32 x float], [32 x i32], [32 x i32], [64 x float], [320 x float], ptr, ptr, ptr, [8 x i8], [4 x [320 x float]], ptr, ptr, ptr, ptr }
%struct.GetBitContext = type { ptr, ptr, i32, i32, i32 }
%struct.AVCodec = type { ptr, ptr, i32, i32, i32, i8, ptr, ptr, ptr, ptr, ptr, ptr, ptr, ptr }

; Function Attrs: cold nounwind optsize uwtable
define internal i32 @siren_init(ptr noundef %0) #0 {
  %2 = alloca i32, align 4
  %3 = alloca ptr, align 8
  %4 = alloca float, align 4
  %5 = alloca ptr, align 8
  %6 = alloca i32, align 4
  %7 = alloca %struct.AVChannelLayout, align 8
  %8 = alloca float, align 4
  %9 = alloca float, align 4
  %10 = alloca i32, align 4
  store ptr %0, ptr %3, align 8, !tbaa !4
  call void @llvm.lifetime.start.p0(i64 4, ptr %4) #9
  store float 0x3EB745D180000000, ptr %4, align 4, !tbaa !9
  call void @llvm.lifetime.start.p0(i64 8, ptr %5) #9
  %11 = load ptr, ptr %3, align 8, !tbaa !4
  %12 = getelementptr inbounds nuw %struct.AVCodecContext, ptr %11, i32 0, i32 6
  %13 = load ptr, ptr %12, align 8, !tbaa !11
  store ptr %13, ptr %5, align 8, !tbaa !30
  call void @llvm.lifetime.start.p0(i64 4, ptr %6) #9
  %14 = load ptr, ptr %5, align 8, !tbaa !30
  %15 = getelementptr inbounds nuw %struct.SirenContext, ptr %14, i32 0, i32 22
  %16 = getelementptr inbounds [4 x [320 x float]], ptr %15, i64 0, i64 0
  %17 = getelementptr inbounds [320 x float], ptr %16, i64 0, i64 0
  %18 = load ptr, ptr %5, align 8, !tbaa !30
  %19 = getelementptr inbounds nuw %struct.SirenContext, ptr %18, i32 0, i32 24
  store ptr %17, ptr %19, align 8, !tbaa !32
  %20 = load ptr, ptr %5, align 8, !tbaa !30
  %21 = getelementptr inbounds nuw %struct.SirenContext, ptr %20, i32 0, i32 22
  %22 = getelementptr inbounds [4 x [320 x float]], ptr %21, i64 0, i64 1
  %23 = getelementptr inbounds [320 x float], ptr %22, i64 0, i64 0
  %24 = load ptr, ptr %5, align 8, !tbaa !30
  %25 = getelementptr inbounds nuw %struct.SirenContext, ptr %24, i32 0, i32 25
  store ptr %23, ptr %25, align 16, !tbaa !38
  %26 = load ptr, ptr %5, align 8, !tbaa !30
  %27 = getelementptr inbounds nuw %struct.SirenContext, ptr %26, i32 0, i32 22
  %28 = getelementptr inbounds [4 x [320 x float]], ptr %27, i64 0, i64 2
  %29 = getelementptr inbounds [320 x float], ptr %28, i64 0, i64 0
  %30 = load ptr, ptr %5, align 8, !tbaa !30
  %31 = getelementptr inbounds nuw %struct.SirenContext, ptr %30, i32 0, i32 26
  store ptr %29, ptr %31, align 8, !tbaa !39
  %32 = load ptr, ptr %5, align 8, !tbaa !30
  %33 = getelementptr inbounds nuw %struct.SirenContext, ptr %32, i32 0, i32 22
  %34 = getelementptr inbounds [4 x [320 x float]], ptr %33, i64 0, i64 3
  %35 = getelementptr inbounds [320 x float], ptr %34, i64 0, i64 0
  %36 = load ptr, ptr %5, align 8, !tbaa !30
  %37 = getelementptr inbounds nuw %struct.SirenContext, ptr %36, i32 0, i32 23
  store ptr %35, ptr %37, align 16, !tbaa !40
  %38 = load ptr, ptr %3, align 8, !tbaa !4
  %39 = getelementptr inbounds nuw %struct.AVCodecContext, ptr %38, i32 0, i32 71
  call void @av_channel_layout_uninit(ptr noundef %39)
  %40 = load ptr, ptr %3, align 8, !tbaa !4
  %41 = getelementptr inbounds nuw %struct.AVCodecContext, ptr %40, i32 0, i32 71
  %42 = getelementptr inbounds nuw %struct.AVChannelLayout, ptr %7, i32 0, i32 0
  store i32 1, ptr %42, align 8, !tbaa !41
  %43 = getelementptr inbounds nuw %struct.AVChannelLayout, ptr %7, i32 0, i32 1
  store i32 1, ptr %43, align 4, !tbaa !42
  %44 = getelementptr inbounds nuw %struct.AVChannelLayout, ptr %7, i32 0, i32 2
  store i64 4, ptr %44, align 8, !tbaa !43
  %45 = getelementptr inbounds nuw %struct.AVChannelLayout, ptr %7, i32 0, i32 3
  store ptr null, ptr %45, align 8, !tbaa !44
  call void @llvm.memcpy.p0.p0.i64(ptr align 8 %41, ptr align 8 %7, i64 24, i1 false), !tbaa.struct !45
  %46 = load ptr, ptr %3, align 8, !tbaa !4
  %47 = getelementptr inbounds nuw %struct.AVCodecContext, ptr %46, i32 0, i32 70
  store i32 3, ptr %47, align 4, !tbaa !48
  %48 = load ptr, ptr %5, align 8, !tbaa !30
  %49 = getelementptr inbounds nuw %struct.SirenContext, ptr %48, i32 0, i32 2
  store i32 16, ptr %49, align 4, !tbaa !49
  %50 = load ptr, ptr %5, align 8, !tbaa !30
  %51 = getelementptr inbounds nuw %struct.SirenContext, ptr %50, i32 0, i32 3
  store i32 7, ptr %51, align 8, !tbaa !50
  %52 = load ptr, ptr %5, align 8, !tbaa !30
  %53 = getelementptr inbounds nuw %struct.SirenContext, ptr %52, i32 0, i32 4
  store i32 14, ptr %53, align 4, !tbaa !51
  %54 = load ptr, ptr %5, align 8, !tbaa !30
  %55 = getelementptr inbounds nuw %struct.SirenContext, ptr %54, i32 0, i32 5
  store i32 22, ptr %55, align 16, !tbaa !52
  %56 = load ptr, ptr %5, align 8, !tbaa !30
  %57 = getelementptr inbounds nuw %struct.SirenContext, ptr %56, i32 0, i32 11
  store i32 1, ptr %57, align 8, !tbaa !53
  %58 = load ptr, ptr %5, align 8, !tbaa !30
  %59 = getelementptr inbounds nuw %struct.SirenContext, ptr %58, i32 0, i32 10
  store i32 1, ptr %59, align 4, !tbaa !54
  %60 = load ptr, ptr %5, align 8, !tbaa !30
  %61 = getelementptr inbounds nuw %struct.SirenContext, ptr %60, i32 0, i32 9
  store i32 1, ptr %61, align 16, !tbaa !55
  %62 = load ptr, ptr %5, align 8, !tbaa !30
  %63 = getelementptr inbounds nuw %struct.SirenContext, ptr %62, i32 0, i32 8
  store i32 1, ptr %63, align 4, !tbaa !56
  store i32 0, ptr %6, align 4, !tbaa !46
  br label %64

64:                                               ; preds = %81, %1
  %65 = load i32, ptr %6, align 4, !tbaa !46
  %66 = icmp slt i32 %65, 64
  br i1 %66, label %67, label %84

67:                                               ; preds = %64
  call void @llvm.lifetime.start.p0(i64 4, ptr %8) #9
  %68 = load i32, ptr %6, align 4, !tbaa !46
  %69 = sub nsw i32 %68, 24
  %70 = sitofp i32 %69 to double
  %71 = fmul nsz double %70, 0x3FD3441350A96098
  %72 = fptrunc nsz double %71 to float
  %73 = call nsz float @llvm.pow.f32(float 1.000000e+01, float %72)
  store float %73, ptr %8, align 4, !tbaa !9
  %74 = load float, ptr %8, align 4, !tbaa !9
  %75 = call nsz float @llvm.sqrt.f32(float %74)
  %76 = load ptr, ptr %5, align 8, !tbaa !30
  %77 = getelementptr inbounds nuw %struct.SirenContext, ptr %76, i32 0, i32 16
  %78 = load i32, ptr %6, align 4, !tbaa !46
  %79 = sext i32 %78 to i64
  %80 = getelementptr inbounds [64 x float], ptr %77, i64 0, i64 %79
  store float %75, ptr %80, align 4, !tbaa !9
  call void @llvm.lifetime.end.p0(i64 4, ptr %8) #9
  br label %81

81:                                               ; preds = %67
  %82 = load i32, ptr %6, align 4, !tbaa !46
  %83 = add nsw i32 %82, 1
  store i32 %83, ptr %6, align 4, !tbaa !46
  br label %64, !llvm.loop !57

84:                                               ; preds = %64
  store i32 0, ptr %6, align 4, !tbaa !46
  br label %85

85:                                               ; preds = %104, %84
  %86 = load i32, ptr %6, align 4, !tbaa !46
  %87 = icmp slt i32 %86, 320
  br i1 %87, label %88, label %107

88:                                               ; preds = %85
  call void @llvm.lifetime.start.p0(i64 4, ptr %9) #9
  %89 = load i32, ptr %6, align 4, !tbaa !46
  %90 = sitofp i32 %89 to float
  %91 = fadd nsz float %90, 5.000000e-01
  %92 = fpext nsz float %91 to double
  %93 = fmul nsz double %92, 0x3FF921FB54442D18
  %94 = fdiv nsz double %93, 3.200000e+02
  %95 = fptrunc nsz double %94 to float
  store float %95, ptr %9, align 4, !tbaa !9
  %96 = load float, ptr %9, align 4, !tbaa !9
  %97 = call nsz float @llvm.sin.f32(float %96)
  %98 = load ptr, ptr %5, align 8, !tbaa !30
  %99 = getelementptr inbounds nuw %struct.SirenContext, ptr %98, i32 0, i32 23
  %100 = load ptr, ptr %99, align 16, !tbaa !40
  %101 = load i32, ptr %6, align 4, !tbaa !46
  %102 = sext i32 %101 to i64
  %103 = getelementptr inbounds float, ptr %100, i64 %102
  store float %97, ptr %103, align 4, !tbaa !9
  call void @llvm.lifetime.end.p0(i64 4, ptr %9) #9
  br label %104

104:                                              ; preds = %88
  %105 = load i32, ptr %6, align 4, !tbaa !46
  %106 = add nsw i32 %105, 1
  store i32 %106, ptr %6, align 4, !tbaa !46
  br label %85, !llvm.loop !59

107:                                              ; preds = %85
  %108 = load ptr, ptr %3, align 8, !tbaa !4
  %109 = getelementptr inbounds nuw %struct.AVCodecContext, ptr %108, i32 0, i32 10
  %110 = load i32, ptr %109, align 8, !tbaa !60
  %111 = and i32 %110, 8388608
  %112 = call ptr @avpriv_float_dsp_alloc(i32 noundef %111)
  %113 = load ptr, ptr %5, align 8, !tbaa !30
  %114 = getelementptr inbounds nuw %struct.SirenContext, ptr %113, i32 0, i32 18
  store ptr %112, ptr %114, align 16, !tbaa !61
  %115 = load ptr, ptr %5, align 8, !tbaa !30
  %116 = getelementptr inbounds nuw %struct.SirenContext, ptr %115, i32 0, i32 18
  %117 = load ptr, ptr %116, align 16, !tbaa !61
  %118 = icmp ne ptr %117, null
  br i1 %118, label %120, label %119

119:                                              ; preds = %107
  store i32 -12, ptr %2, align 4
  store i32 1, ptr %10, align 4
  br label %151

120:                                              ; preds = %107
  %121 = load ptr, ptr %3, align 8, !tbaa !4
  %122 = getelementptr inbounds nuw %struct.AVCodecContext, ptr %121, i32 0, i32 3
  %123 = load ptr, ptr %122, align 8, !tbaa !62
  %124 = getelementptr inbounds nuw %struct.AVCodec, ptr %123, i32 0, i32 3
  %125 = load i32, ptr %124, align 4, !tbaa !63
  %126 = icmp eq i32 %125, 86111
  %127 = zext i1 %126 to i32
  %128 = load ptr, ptr %5, align 8, !tbaa !30
  %129 = getelementptr inbounds nuw %struct.SirenContext, ptr %128, i32 0, i32 1
  store i32 %127, ptr %129, align 16, !tbaa !68
  %130 = load ptr, ptr %5, align 8, !tbaa !30
  %131 = getelementptr inbounds nuw %struct.SirenContext, ptr %130, i32 0, i32 1
  %132 = load i32, ptr %131, align 16, !tbaa !68
  %133 = icmp ne i32 %132, 0
  br i1 %133, label %134, label %145

134:                                              ; preds = %120
  %135 = load ptr, ptr %5, align 8, !tbaa !30
  %136 = getelementptr inbounds nuw %struct.SirenContext, ptr %135, i32 0, i32 3
  store i32 -2, ptr %136, align 8, !tbaa !50
  %137 = load ptr, ptr %5, align 8, !tbaa !30
  %138 = getelementptr inbounds nuw %struct.SirenContext, ptr %137, i32 0, i32 4
  store i32 14, ptr %138, align 4, !tbaa !51
  %139 = load ptr, ptr %5, align 8, !tbaa !30
  %140 = getelementptr inbounds nuw %struct.SirenContext, ptr %139, i32 0, i32 5
  store i32 1, ptr %140, align 16, !tbaa !52
  %141 = load ptr, ptr %5, align 8, !tbaa !30
  %142 = getelementptr inbounds nuw %struct.SirenContext, ptr %141, i32 0, i32 6
  store i32 2, ptr %142, align 4, !tbaa !69
  %143 = load ptr, ptr %5, align 8, !tbaa !30
  %144 = getelementptr inbounds nuw %struct.SirenContext, ptr %143, i32 0, i32 7
  store i32 4, ptr %144, align 8, !tbaa !70
  br label %145

145:                                              ; preds = %134, %120
  %146 = load ptr, ptr %5, align 8, !tbaa !30
  %147 = getelementptr inbounds nuw %struct.SirenContext, ptr %146, i32 0, i32 20
  %148 = load ptr, ptr %5, align 8, !tbaa !30
  %149 = getelementptr inbounds nuw %struct.SirenContext, ptr %148, i32 0, i32 19
  %150 = call i32 @av_tx_init(ptr noundef %147, ptr noundef %149, i32 noundef 1, i32 noundef 1, i32 noundef 320, ptr noundef %4, i64 noundef 0)
  store i32 %150, ptr %2, align 4
  store i32 1, ptr %10, align 4
  br label %151

151:                                              ; preds = %145, %119
  call void @llvm.lifetime.end.p0(i64 4, ptr %6) #9
  call void @llvm.lifetime.end.p0(i64 8, ptr %5) #9
  call void @llvm.lifetime.end.p0(i64 4, ptr %4) #9
  %152 = load i32, ptr %2, align 4
  ret i32 %152
}