; Function Attrs: cold nounwind optsize uwtable
define internal i32 @siren_init(ptr noundef %0) #0 {
  %2 = alloca float, align 4
  call void @llvm.lifetime.start.p0(i64 4, ptr nonnull %2) #9
  store float 0x3EB745D180000000, ptr %2, align 4, !tbaa !4
  %3 = getelementptr inbounds nuw i8, ptr %0, i64 32
  %4 = load ptr, ptr %3, align 8, !tbaa !8
  %5 = getelementptr inbounds nuw i8, ptr %4, i64 2160
  %6 = getelementptr inbounds nuw i8, ptr %4, i64 7288
  store ptr %5, ptr %6, align 8, !tbaa !28
  %7 = getelementptr inbounds nuw i8, ptr %4, i64 3440
  %8 = getelementptr inbounds nuw i8, ptr %4, i64 7296
  store ptr %7, ptr %8, align 16, !tbaa !34
  %9 = getelementptr inbounds nuw i8, ptr %4, i64 4720
  %10 = getelementptr inbounds nuw i8, ptr %4, i64 7304
  store ptr %9, ptr %10, align 8, !tbaa !35
  %11 = getelementptr inbounds nuw i8, ptr %4, i64 6000
  %12 = getelementptr inbounds nuw i8, ptr %4, i64 7280
  store ptr %11, ptr %12, align 16, !tbaa !36
  %13 = getelementptr inbounds nuw i8, ptr %0, i64 352
  tail call void @av_channel_layout_uninit(ptr noundef nonnull %13) #9
  store i32 1, ptr %13, align 8, !tbaa !37
  %.sroa.2.0..sroa_idx = getelementptr inbounds nuw i8, ptr %0, i64 356
  store i32 1, ptr %.sroa.2.0..sroa_idx, align 4, !tbaa !37
  %.sroa.3.0..sroa_idx = getelementptr inbounds nuw i8, ptr %0, i64 360
  store i64 4, ptr %.sroa.3.0..sroa_idx, align 8, !tbaa !38
  %.sroa.4.0..sroa_idx = getelementptr inbounds nuw i8, ptr %0, i64 368
  store ptr null, ptr %.sroa.4.0..sroa_idx, align 8, !tbaa !39
  %14 = getelementptr inbounds nuw i8, ptr %0, i64 348
  store i32 3, ptr %14, align 4, !tbaa !40
  %15 = getelementptr inbounds nuw i8, ptr %4, i64 36
  store i32 16, ptr %15, align 4, !tbaa !41
  %16 = getelementptr inbounds nuw i8, ptr %4, i64 40
  store i32 7, ptr %16, align 8, !tbaa !42
  %17 = getelementptr inbounds nuw i8, ptr %4, i64 44
  store i32 14, ptr %17, align 4, !tbaa !43
  %18 = getelementptr inbounds nuw i8, ptr %4, i64 48
  store i32 22, ptr %18, align 16, !tbaa !44
  %19 = getelementptr inbounds nuw i8, ptr %4, i64 72
  store i32 1, ptr %19, align 8, !tbaa !45
  %20 = getelementptr inbounds nuw i8, ptr %4, i64 68
  store i32 1, ptr %20, align 4, !tbaa !46
  %21 = getelementptr inbounds nuw i8, ptr %4, i64 64
  store i32 1, ptr %21, align 16, !tbaa !47
  %22 = getelementptr inbounds nuw i8, ptr %4, i64 60
  store i32 1, ptr %22, align 4, !tbaa !48
  %23 = getelementptr inbounds nuw i8, ptr %4, i64 588
  br label %25

.preheader:                                       ; preds = %25
  %24 = load ptr, ptr %12, align 16, !tbaa !36
  br label %34

25:                                               ; preds = %1, %25
  %indvars.iv = phi i64 [ 0, %1 ], [ %indvars.iv.next, %25 ]
  %26 = trunc i64 %indvars.iv to i32
  %27 = add i32 %26, -24
  %28 = sitofp i32 %27 to double
  %29 = fmul nsz double %28, 0x3FD3441350A96098
  %30 = fptrunc nsz double %29 to float
  %31 = tail call nsz float @llvm.pow.f32(float 1.000000e+01, float %30)
  %32 = tail call nsz float @llvm.sqrt.f32(float %31)
  %33 = getelementptr inbounds nuw [64 x float], ptr %23, i64 0, i64 %indvars.iv
  store float %32, ptr %33, align 4, !tbaa !4
  %indvars.iv.next = add nuw nsw i64 %indvars.iv, 1
  %exitcond.not = icmp eq i64 %indvars.iv.next, 64
  br i1 %exitcond.not, label %.preheader, label %25, !llvm.loop !49

34:                                               ; preds = %.preheader, %34
  %indvars.iv49 = phi i64 [ 0, %.preheader ], [ %indvars.iv.next50, %34 ]
  %35 = trunc nuw nsw i64 %indvars.iv49 to i32
  %36 = uitofp nneg i32 %35 to float
  %37 = fadd nsz float %36, 5.000000e-01
  %38 = fpext nsz float %37 to double
  %39 = fmul nsz double %38, 0x3FF921FB54442D18
  %40 = fdiv nsz double %39, 3.200000e+02
  %41 = fptrunc nsz double %40 to float
  %42 = tail call nsz float @llvm.sin.f32(float %41)
  %43 = getelementptr inbounds nuw float, ptr %24, i64 %indvars.iv49
  store float %42, ptr %43, align 4, !tbaa !4
  %indvars.iv.next50 = add nuw nsw i64 %indvars.iv49, 1
  %exitcond52.not = icmp eq i64 %indvars.iv.next50, 320
  br i1 %exitcond52.not, label %44, label %34, !llvm.loop !51

44:                                               ; preds = %34
  %45 = getelementptr inbounds nuw i8, ptr %0, i64 64
  %46 = load i32, ptr %45, align 8, !tbaa !52
  %47 = and i32 %46, 8388608
  %48 = tail call ptr @avpriv_float_dsp_alloc(i32 noundef %47) #9
  %49 = getelementptr inbounds nuw i8, ptr %4, i64 2128
  store ptr %48, ptr %49, align 16, !tbaa !53
  %.not = icmp eq ptr %48, null
  br i1 %.not, label %65, label %50

50:                                               ; preds = %44
  %51 = getelementptr inbounds nuw i8, ptr %0, i64 16
  %52 = load ptr, ptr %51, align 8, !tbaa !54
  %53 = getelementptr inbounds nuw i8, ptr %52, i64 20
  %54 = load i32, ptr %53, align 4, !tbaa !55
  %55 = icmp eq i32 %54, 86111
  %56 = zext i1 %55 to i32
  %57 = getelementptr inbounds nuw i8, ptr %4, i64 32
  store i32 %56, ptr %57, align 16, !tbaa !60
  br i1 %55, label %58, label %61

58:                                               ; preds = %50
  store i32 -2, ptr %16, align 8, !tbaa !42
  store i32 14, ptr %17, align 4, !tbaa !43
  store i32 1, ptr %18, align 16, !tbaa !44
  %59 = getelementptr inbounds nuw i8, ptr %4, i64 52
  store i32 2, ptr %59, align 4, !tbaa !61
  %60 = getelementptr inbounds nuw i8, ptr %4, i64 56
  store i32 4, ptr %60, align 8, !tbaa !62
  br label %61

61:                                               ; preds = %58, %50
  %62 = getelementptr inbounds nuw i8, ptr %4, i64 2144
  %63 = getelementptr inbounds nuw i8, ptr %4, i64 2136
  %64 = call i32 @av_tx_init(ptr noundef nonnull %62, ptr noundef nonnull %63, i32 noundef 1, i32 noundef 1, i32 noundef 320, ptr noundef nonnull %2, i64 noundef 0) #9
  br label %65

65:                                               ; preds = %44, %61
  %.0 = phi i32 [ %64, %61 ], [ -12, %44 ]
  call void @llvm.lifetime.end.p0(i64 4, ptr nonnull %2) #9
  ret i32 %.0
}